(lp0
(lp1
F7.0
aF4.0
aF0.6876388616773966
aF-0.7613335141529803
aa(lp2
F7.0
aF8.0
aF-1.4762008355374017
aF-0.346051069963121
aa(lp3
F8.0
aF9.0
aF0.7902071202137338
aF0.2774486865200102
aa(lp4
F5.0
aF9.0
aF1.0132493704100582
aF1.1686222689300023
aa(lp5
F3.0
aF7.0
aF0.9758722854581259
aF-0.6083051039220774
aa(lp6
F9.0
aF4.0
aF0.03070790208108713
aF0.8105114072511045
aa(lp7
F7.0
aF9.0
aF-2.294836946637202
aF0.23737012123942083
aa(lp8
F3.0
aF5.0
aF0.15070575637208397
aF-0.07903977435282812
aa(lp9
F4.0
aF5.0
aF0.6288431791189494
aF-0.6169230228901248
aa(lp10
F9.0
aF4.0
aF-0.6540193477951624
aF0.7642804860680343
aa(lp11
F5.0
aF7.0
aF-0.9593758981934675
aF0.96513717378607
aa(lp12
F8.0
aF5.0
aF-1.5991065465197338
aF0.4664407437573106
aa(lp13
F8.0
aF5.0
aF0.9913695630514944
aF1.59825791003178
aa(lp14
F4.0
aF9.0
aF-2.4846742160460167
aF-0.8609180689176072
aa(lp15
F9.0
aF9.0
aF1.0202162472721343
aF-1.6483396331015145
aa(lp16
F9.0
aF6.0
aF-0.980419283184578
aF0.18865776162822473
aa(lp17
F9.0
aF3.0
aF-2.038682996743093
aF1.284907495473956
aa(lp18
F7.0
aF3.0
aF1.5067959581351045
aF-0.13151014999632868
aa(lp19
F4.0
aF9.0
aF1.1462780095664842
aF1.0767299082037636
aa(lp20
F4.0
aF8.0
aF-0.6127059299065958
aF-1.4841014438870241
aa(lp21
F9.0
aF5.0
aF1.1635460606737047
aF-0.23962294835257736
aa(lp22
F3.0
aF7.0
aF0.29956835030992807
aF0.46051247411689816
aa(lp23
F8.0
aF7.0
aF-1.04052888938736
aF-1.0224768385640626
aa(lp24
F4.0
aF4.0
aF-1.582538483815158
aF0.4929052597733635
aa(lp25
F7.0
aF3.0
aF1.2292547686718522
aF1.433212802668734
aa(lp26
F8.0
aF8.0
aF-0.18350430609562893
aF0.9808949035269955
aa(lp27
F4.0
aF8.0
aF0.4871570743083112
aF-0.6790764425638112
aa(lp28
F6.0
aF4.0
aF0.9037429361403045
aF-0.7191728242190163
aa(lp29
F4.0
aF3.0
aF-0.2575721402860349
aF-1.0132960825449748
aa(lp30
F3.0
aF9.0
aF0.5685343254282756
aF0.44738778052295186
aa(lp31
F5.0
aF3.0
aF0.03943658000757287
aF1.0992283363227269
aa(lp32
F7.0
aF9.0
aF-0.057444687212170775
aF-0.06012911449188181
aa(lp33
F6.0
aF3.0
aF-0.14517913242544178
aF-0.5584909511968337
aa(lp34
F6.0
aF5.0
aF0.05635763691771794
aF-0.005991851278180576
aa(lp35
F4.0
aF7.0
aF0.8286149746581254
aF1.7819412821833593
aa(lp36
F8.0
aF3.0
aF0.04662730861247919
aF0.34558853874396145
aa(lp37
F4.0
aF3.0
aF-2.0486062399582154
aF0.18850587785393733
aa(lp38
F5.0
aF4.0
aF-0.5648546049307998
aF0.4051538239079669
aa(lp39
F9.0
aF5.0
aF-0.7413264600547544
aF0.42689842944415923
aa(lp40
F8.0
aF4.0
aF0.9045253228006744
aF1.048847705373195
aa(lp41
F3.0
aF5.0
aF-0.5613813851365046
aF-2.666692492298535
aa(lp42
F9.0
aF4.0
aF1.592905768032511
aF-1.2068633466097107
aa(lp43
F8.0
aF6.0
aF1.0965921648995425
aF1.7322868409285344
aa(lp44
F7.0
aF8.0
aF0.0027980256945871608
aF-0.5093198117406249
aa(lp45
F6.0
aF6.0
aF1.1130831770136052
aF-1.3077146514865188
aa(lp46
F9.0
aF8.0
aF-0.8993674701449788
aF-0.5211654371181561
aa(lp47
F4.0
aF6.0
aF-1.0979124372323774
aF-0.43802542077027823
aa(lp48
F7.0
aF8.0
aF-1.2512602627378797
aF0.5559342201034957
aa(lp49
F5.0
aF3.0
aF0.111943359875487
aF-0.19147936800532162
aa(lp50
F9.0
aF5.0
aF-0.8317190083231955
aF-0.22275422534238704
aa.