(lp0
(lp1
F9.0
aF3.0
aF0.5880019545159919
aF0.19187015263007043
aa(lp2
F3.0
aF6.0
aF-0.32458050064637745
aF-0.35699594152552944
aa(lp3
F3.0
aF7.0
aF-1.2969946395258483
aF-0.6434953572178203
aa(lp4
F3.0
aF3.0
aF-0.595216679708058
aF-0.08003941853530329
aa(lp5
F6.0
aF6.0
aF-0.9314365717248306
aF-1.3367572263269751
aa(lp6
F7.0
aF4.0
aF-0.0352463846999741
aF0.9995135869981834
aa(lp7
F4.0
aF3.0
aF0.04675118228427692
aF-0.9236195360384071
aa(lp8
F3.0
aF7.0
aF-0.09929551736934665
aF0.9410045834459235
aa(lp9
F4.0
aF5.0
aF1.5490157926739196
aF1.001764024648848
aa(lp10
F7.0
aF6.0
aF-0.7435588628118397
aF0.5245073109992702
aa(lp11
F9.0
aF5.0
aF1.9567224826414586
aF-1.068928042964107
aa(lp12
F6.0
aF7.0
aF1.7669120704931243
aF-1.1825984822080629
aa(lp13
F3.0
aF3.0
aF-0.5458763147030266
aF-0.22138960377615916
aa(lp14
F5.0
aF5.0
aF1.3220795437042456
aF1.8855174044956784
aa(lp15
F9.0
aF4.0
aF-1.1994661232440476
aF0.8895284374980154
aa(lp16
F8.0
aF5.0
aF-0.5510370997179218
aF0.03224648182880041
aa(lp17
F3.0
aF6.0
aF0.08985668286325685
aF1.0566919594595756
aa(lp18
F6.0
aF9.0
aF1.6592657724200495
aF1.5165513225460556
aa(lp19
F9.0
aF9.0
aF1.196719814979884
aF0.6140423086266533
aa(lp20
F8.0
aF5.0
aF-0.12154211596061702
aF0.5308375236095139
aa(lp21
F5.0
aF6.0
aF1.1020601918017046
aF0.3020825155206324
aa(lp22
F5.0
aF3.0
aF1.8103673721858966
aF1.6944431828884654
aa(lp23
F4.0
aF4.0
aF-0.6071350876126033
aF-0.6796493067275049
aa(lp24
F3.0
aF7.0
aF-2.0345933536633467
aF0.8666716530169076
aa(lp25
F4.0
aF3.0
aF1.406695972496978
aF0.029859757989912854
aa(lp26
F5.0
aF4.0
aF2.7354002112500937
aF0.5913341983218054
aa(lp27
F3.0
aF4.0
aF0.5933740770679609
aF0.025766226366034765
aa(lp28
F9.0
aF9.0
aF-0.1995233162324255
aF0.6825413602660352
aa(lp29
F7.0
aF5.0
aF-0.10801532817619827
aF-0.22010501820875522
aa(lp30
F7.0
aF3.0
aF0.23821488494108337
aF0.09708179784577561
aa(lp31
F6.0
aF9.0
aF2.649967657382995
aF0.12968333279847755
aa(lp32
F8.0
aF6.0
aF0.32692476093540984
aF1.3411869335196036
aa(lp33
F4.0
aF3.0
aF-0.3391746067733001
aF-1.3048456552654804
aa(lp34
F6.0
aF8.0
aF-2.726896459326233
aF-0.9630786037125926
aa(lp35
F7.0
aF8.0
aF0.5252883735323354
aF-0.1879682910652386
aa(lp36
F7.0
aF4.0
aF-1.062117688739036
aF-0.014900112197120369
aa(lp37
F3.0
aF8.0
aF0.6854793212674772
aF0.5932169183160417
aa(lp38
F9.0
aF9.0
aF0.5043783267062512
aF-0.9299999745073214
aa(lp39
F4.0
aF9.0
aF-1.5382622453523387
aF-0.23091096243312065
aa(lp40
F9.0
aF9.0
aF0.2177140722563685
aF-1.3192311213071142
aa(lp41
F6.0
aF3.0
aF0.2622635859752458
aF1.0576577615878386
aa(lp42
F7.0
aF7.0
aF-0.6060756877496521
aF0.2815238952220916
aa(lp43
F7.0
aF3.0
aF1.5463364531491204
aF-1.7214222537464798
aa(lp44
F7.0
aF9.0
aF1.7886970522734582
aF-0.33830464066112503
aa(lp45
F9.0
aF8.0
aF-0.8080653212208644
aF-1.0509778407803823
aa(lp46
F9.0
aF7.0
aF-0.5179804809331298
aF0.20658811991181
aa(lp47
F9.0
aF8.0
aF-0.3407005891762775
aF0.8117840174909728
aa(lp48
F6.0
aF7.0
aF0.16339753469649482
aF0.6339297021501167
aa(lp49
F6.0
aF5.0
aF0.13488358998271932
aF-0.9124344636016306
aa(lp50
F7.0
aF6.0
aF0.4446798052286421
aF2.4132986914190395
aa.